target datalayout = "e-m:e-p270:32:32-p271:32:32-p272:64:64-i64:64-i128:128-f80:128-n8:16:32:64-S128"
target triple = "x86_64-pc-linux-gnu"

%"struct.cv::rgbd::RgbdFrame" = type { ptr, i32, %"class.cv::Mat", %"class.cv::Mat", %"class.cv::Mat", %"class.cv::Mat" }
%"class.cv::Mat" = type { i32, i32, i32, i32, ptr, ptr, ptr, ptr, ptr, ptr, %"struct.cv::MatSize", %"struct.cv::MatStep" }
%"struct.cv::MatSize" = type { ptr }
%"struct.cv::MatStep" = type { ptr, [2 x i64] }

@_ZTVN2cv4rgbd9RgbdFrameE = unnamed_addr constant { [5 x ptr] } { [5 x ptr] [ptr null, ptr @_ZTIN2cv4rgbd9RgbdFrameE, ptr @_ZN2cv4rgbd9RgbdFrameD1Ev, ptr @_ZN2cv4rgbd9RgbdFrameD0Ev, ptr @_ZN2cv4rgbd9RgbdFrame7releaseEv] }, align 8

; Function Attrs: mustprogress uwtable
define void @_ZN2cv4rgbd9RgbdFrameC2ERKNS_3MatES4_S4_S4_i(ptr noundef nonnull align 8 dereferenceable(400) %0, ptr noundef nonnull align 8 dereferenceable(96) %1, ptr noundef nonnull align 8 dereferenceable(96) %2, ptr noundef nonnull align 8 dereferenceable(96) %3, ptr noundef nonnull align 8 dereferenceable(96) %4, i32 noundef %5) unnamed_addr #6 align 2 personality ptr @__gxx_personality_v0 {
  %7 = alloca ptr, align 8
  %8 = alloca ptr, align 8
  %9 = alloca ptr, align 8
  %10 = alloca ptr, align 8
  %11 = alloca ptr, align 8
  %12 = alloca i32, align 4
  %13 = alloca ptr, align 8
  %14 = alloca i32, align 4
  store ptr %0, ptr %7, align 8, !tbaa !16
  store ptr %1, ptr %8, align 8, !tbaa !29
  store ptr %2, ptr %9, align 8, !tbaa !29
  store ptr %3, ptr %10, align 8, !tbaa !29
  store ptr %4, ptr %11, align 8, !tbaa !29
  store i32 %5, ptr %12, align 4, !tbaa !10
  %15 = load ptr, ptr %7, align 8
  store ptr getelementptr inbounds inrange(-16, 24) ({ [5 x ptr] }, ptr @_ZTVN2cv4rgbd9RgbdFrameE, i32 0, i32 0, i32 2), ptr %15, align 8, !tbaa !18
  %16 = getelementptr inbounds nuw %"struct.cv::rgbd::RgbdFrame", ptr %15, i32 0, i32 1
  %17 = load i32, ptr %12, align 4, !tbaa !10
  store i32 %17, ptr %16, align 8, !tbaa !20
  %18 = getelementptr inbounds nuw %"struct.cv::rgbd::RgbdFrame", ptr %15, i32 0, i32 2
  %19 = load ptr, ptr %8, align 8, !tbaa !29
  call void @_ZN2cv3MatC1ERKS0_(ptr noundef nonnull align 8 dereferenceable(96) %18, ptr noundef nonnull align 8 dereferenceable(96) %19)
  %20 = getelementptr inbounds nuw %"struct.cv::rgbd::RgbdFrame", ptr %15, i32 0, i32 3
  %21 = load ptr, ptr %9, align 8, !tbaa !29
  invoke void @_ZN2cv3MatC1ERKS0_(ptr noundef nonnull align 8 dereferenceable(96) %20, ptr noundef nonnull align 8 dereferenceable(96) %21)
          to label %22 unwind label %29

22:                                               ; preds = %6
  %23 = getelementptr inbounds nuw %"struct.cv::rgbd::RgbdFrame", ptr %15, i32 0, i32 4
  %24 = load ptr, ptr %10, align 8, !tbaa !29
  invoke void @_ZN2cv3MatC1ERKS0_(ptr noundef nonnull align 8 dereferenceable(96) %23, ptr noundef nonnull align 8 dereferenceable(96) %24)
          to label %25 unwind label %33

25:                                               ; preds = %22
  %26 = getelementptr inbounds nuw %"struct.cv::rgbd::RgbdFrame", ptr %15, i32 0, i32 5
  %27 = load ptr, ptr %11, align 8, !tbaa !29
  invoke void @_ZN2cv3MatC1ERKS0_(ptr noundef nonnull align 8 dereferenceable(96) %26, ptr noundef nonnull align 8 dereferenceable(96) %27)
          to label %28 unwind label %37

28:                                               ; preds = %25
  ret void

29:                                               ; preds = %6
  %30 = landingpad { ptr, i32 }
          cleanup
  %31 = extractvalue { ptr, i32 } %30, 0
  store ptr %31, ptr %13, align 8
  %32 = extractvalue { ptr, i32 } %30, 1
  store i32 %32, ptr %14, align 4
  br label %42

33:                                               ; preds = %22
  %34 = landingpad { ptr, i32 }
          cleanup
  %35 = extractvalue { ptr, i32 } %34, 0
  store ptr %35, ptr %13, align 8
  %36 = extractvalue { ptr, i32 } %34, 1
  store i32 %36, ptr %14, align 4
  br label %41

37:                                               ; preds = %25
  %38 = landingpad { ptr, i32 }
          cleanup
  %39 = extractvalue { ptr, i32 } %38, 0
  store ptr %39, ptr %13, align 8
  %40 = extractvalue { ptr, i32 } %38, 1
  store i32 %40, ptr %14, align 4
  call void @_ZN2cv3MatD1Ev(ptr noundef nonnull align 8 dereferenceable(96) %23) #3
  br label %41

41:                                               ; preds = %37, %33
  call void @_ZN2cv3MatD1Ev(ptr noundef nonnull align 8 dereferenceable(96) %20) #3
  br label %42

42:                                               ; preds = %41, %29
  call void @_ZN2cv3MatD1Ev(ptr noundef nonnull align 8 dereferenceable(96) %18) #3
  br label %43

43:                                               ; preds = %42
  %44 = load ptr, ptr %13, align 8
  %45 = load i32, ptr %14, align 4
  %46 = insertvalue { ptr, i32 } poison, ptr %44, 0
  %47 = insertvalue { ptr, i32 } %46, i32 %45, 1
  resume { ptr, i32 } %47
}